; ModuleID = 'bench/openjdk/original/Throwable.ll'
source_filename = "bench/openjdk/original/Throwable.ll"
target datalayout = "e-m:e-p270:32:32-p271:32:32-p272:64:64-i64:64-i128:128-f80:128-n8:16:32:64-S128"
target triple = "x86_64-pc-linux-gnu"

; Function Attrs: nounwind uwtable
define noundef ptr @Java_java_lang_Throwable_fillInStackTrace(ptr noundef %0, ptr noundef returned %1, i32 noundef %2) local_unnamed_addr #0 {
  tail call void @JVM_FillInStackTrace(ptr noundef %0, ptr noundef %1) #2
  ret ptr %1
}

declare void @JVM_FillInStackTrace(ptr noundef, ptr noundef) local_unnamed_addr #1


!llvm.module.flags = !{!0, !1, !2, !3, !4, !5}

!0 = !{i32 7, !"Dwarf Version", i32 5}
!1 = !{i32 2, !"Debug Info Version", i32 3}
!2 = !{i32 1, !"wchar_size", i32 4}
!3 = !{i32 8, !"PIC Level", i32 2}
!4 = !{i32 7, !"uwtable", i32 2}
!5 = !{i32 7, !"frame-pointer", i32 2}
